; Function Attrs: mustprogress uwtable
define void @_ZNK10open_spiel9coin_game9CoinState17ObservationStringB5cxx11Ei(ptr dead_on_unwind noalias writable sret(%"class.std::__cxx11::basic_string") align 8 %0, ptr nocapture noundef nonnull readonly align 8 dereferenceable(288) %1, i32 noundef %2) unnamed_addr #3 align 2 personality ptr @__gxx_personality_v0 {
  %4 = alloca i32, align 4
  %5 = alloca i32, align 4
  %6 = alloca %"class.std::__cxx11::basic_string", align 8
  %7 = alloca i32, align 4
  %8 = alloca i32, align 4
  %9 = alloca i32, align 4
  %10 = alloca %"class.std::__cxx11::basic_string", align 8
  %11 = alloca i32, align 4
  %12 = alloca %"class.std::__cxx11::basic_ostringstream", align 8
  store i32 %2, ptr %4, align 4
  store i32 0, ptr %5, align 4
  %13 = icmp sgt i32 %2, -1
  br i1 %13, label %18, label %14

14:                                               ; preds = %3
  store i32 217, ptr %7, align 4
  call void @_ZN10open_spiel8internal11SpielStrCatIJRA138_KcRA2_S2_iS6_RA12_S2_RA8_S2_RA4_S2_RiRA7_S2_SD_EEENSt7__cxx1112basic_stringIcSt11char_traitsIcESaIcEEEDpOT_(ptr dead_on_unwind nonnull writable sret(%"class.std::__cxx11::basic_string") align 8 %6, ptr noundef nonnull align 1 dereferenceable(138) @.str.14, ptr noundef nonnull align 1 dereferenceable(2) @.str.15, ptr noundef nonnull align 4 dereferenceable(4) %7, ptr noundef nonnull align 1 dereferenceable(2) @.str.16, ptr noundef nonnull align 1 dereferenceable(12) @.str.17, ptr noundef nonnull align 1 dereferenceable(8) @.str.18, ptr noundef nonnull align 1 dereferenceable(4) @.str.19, ptr noundef nonnull align 4 dereferenceable(4) %4, ptr noundef nonnull align 1 dereferenceable(7) @.str.20, ptr noundef nonnull align 4 dereferenceable(4) %5)
  invoke void @_ZN10open_spiel15SpielFatalErrorERKNSt7__cxx1112basic_stringIcSt11char_traitsIcESaIcEEE(ptr noundef nonnull align 8 dereferenceable(32) %6) #25
          to label %15 unwind label %16

15:                                               ; preds = %14
  unreachable

16:                                               ; preds = %14
  %17 = landingpad { ptr, i32 }
          cleanup
  call void @_ZNSt7__cxx1112basic_stringIcSt11char_traitsIcESaIcEED1Ev(ptr noundef nonnull align 8 dereferenceable(32) %6) #26
  br label %41

18:                                               ; preds = %3
  store i32 %2, ptr %8, align 4
  %19 = getelementptr inbounds nuw i8, ptr %1, i64 28
  %20 = load i32, ptr %19, align 4
  store i32 %20, ptr %9, align 4
  %21 = icmp slt i32 %2, %20
  br i1 %21, label %26, label %22

22:                                               ; preds = %18
  store i32 218, ptr %11, align 4
  call void @_ZN10open_spiel8internal11SpielStrCatIJRA138_KcRA2_S2_iS6_RA22_S2_RA8_S2_RA4_S2_RiRA18_S2_SD_EEENSt7__cxx1112basic_stringIcSt11char_traitsIcESaIcEEEDpOT_(ptr dead_on_unwind nonnull writable sret(%"class.std::__cxx11::basic_string") align 8 %10, ptr noundef nonnull align 1 dereferenceable(138) @.str.14, ptr noundef nonnull align 1 dereferenceable(2) @.str.15, ptr noundef nonnull align 4 dereferenceable(4) %11, ptr noundef nonnull align 1 dereferenceable(2) @.str.16, ptr noundef nonnull align 1 dereferenceable(22) @.str.21, ptr noundef nonnull align 1 dereferenceable(8) @.str.18, ptr noundef nonnull align 1 dereferenceable(4) @.str.19, ptr noundef nonnull align 4 dereferenceable(4) %8, ptr noundef nonnull align 1 dereferenceable(18) @.str.22, ptr noundef nonnull align 4 dereferenceable(4) %9)
  invoke void @_ZN10open_spiel15SpielFatalErrorERKNSt7__cxx1112basic_stringIcSt11char_traitsIcESaIcEEE(ptr noundef nonnull align 8 dereferenceable(32) %10) #25
          to label %23 unwind label %24

23:                                               ; preds = %22
  unreachable

24:                                               ; preds = %22
  %25 = landingpad { ptr, i32 }
          cleanup
  call void @_ZNSt7__cxx1112basic_stringIcSt11char_traitsIcESaIcEED1Ev(ptr noundef nonnull align 8 dereferenceable(32) %10) #26
  br label %41

26:                                               ; preds = %18
  call void @_ZNSt7__cxx1119basic_ostringstreamIcSt11char_traitsIcESaIcEEC1Ev(ptr noundef nonnull align 8 dereferenceable(112) %12)
  %27 = getelementptr inbounds nuw i8, ptr %1, i64 192
  %28 = zext nneg i32 %2 to i64
  %29 = load ptr, ptr %27, align 8
  %30 = getelementptr inbounds i32, ptr %29, i64 %28
  %31 = load i32, ptr %30, align 4
  %32 = invoke noundef nonnull align 8 dereferenceable(8) ptr @_ZNSolsEi(ptr noundef nonnull align 8 dereferenceable(8) %12, i32 noundef %31)
          to label %33 unwind label %39

33:                                               ; preds = %26
  %34 = invoke noundef nonnull align 8 dereferenceable(8) ptr @_ZStlsISt11char_traitsIcEERSt13basic_ostreamIcT_ES5_PKc(ptr noundef nonnull align 8 dereferenceable(8) %32, ptr noundef nonnull @.str.23)
          to label %35 unwind label %39

35:                                               ; preds = %33
  invoke void @_ZNK10open_spiel9coin_game9CoinState19PrintCoinsCollectedERSo(ptr noundef nonnull align 8 dereferenceable(288) %1, ptr noundef nonnull align 8 dereferenceable(8) %12)
          to label %36 unwind label %39

36:                                               ; preds = %35
  invoke void @_ZNK10open_spiel9coin_game9CoinState10PrintBoardERSo(ptr noundef nonnull align 8 dereferenceable(288) %1, ptr noundef nonnull align 8 dereferenceable(8) %12)
          to label %37 unwind label %39

37:                                               ; preds = %36
  invoke void @_ZNKSt7__cxx1119basic_ostringstreamIcSt11char_traitsIcESaIcEE3strEv(ptr dead_on_unwind writable sret(%"class.std::__cxx11::basic_string") align 8 %0, ptr noundef nonnull align 8 dereferenceable(112) %12)
          to label %38 unwind label %39

38:                                               ; preds = %37
  call void @_ZNSt7__cxx1119basic_ostringstreamIcSt11char_traitsIcESaIcEED1Ev(ptr noundef nonnull align 8 dereferenceable(112) %12) #26
  ret void

39:                                               ; preds = %37, %36, %35, %33, %26
  %40 = landingpad { ptr, i32 }
          cleanup
  call void @_ZNSt7__cxx1119basic_ostringstreamIcSt11char_traitsIcESaIcEED1Ev(ptr noundef nonnull align 8 dereferenceable(112) %12) #26
  br label %41

41:                                               ; preds = %39, %24, %16
  %.pn = phi { ptr, i32 } [ %40, %39 ], [ %25, %24 ], [ %17, %16 ]
  resume { ptr, i32 } %.pn
}